target datalayout = "e-m:e-p270:32:32-p271:32:32-p272:64:64-i64:64-i128:128-f80:128-n8:16:32:64-S128"
target triple = "x86_64-pc-linux-gnu"

%struct._address = type { i32, i32, ptr, ptr }
%struct._packet_info = type { ptr, ptr, i32, i32, %struct.nstime_t, %struct.nstime_t, %struct.nstime_t, i8, ptr, ptr, ptr, ptr, %struct._address, %struct._address, %struct._address, %struct._address, %struct._address, %struct._address, i32, ptr, i8, [3 x i8], %struct.anon, i32, i32, i32, i32, ptr, i8, ptr, ptr, i16, i16, i32, i32, i16, i32, i32, ptr, ptr, ptr, i8, i8, i16, i16, i16, i32, i16, i16, ptr, ptr, ptr, ptr, ptr, i32, i32 }
%struct.nstime_t = type { i64, i32 }
%struct.anon = type { i8, [3 x i8] }

@hf_dvbci_afs_dom_id = internal global i32 0, align 4
@hf_dvbci_afs_ack_code = internal global i32 0, align 4
@.str.990 = private unnamed_addr constant [3 x i8] c": \00", align 1
@.str.1069 = private unnamed_addr constant [3 x i8] c"%s\00", align 1

; Function Attrs: null_pointer_is_valid sspstrong uwtable
define internal void @dissect_dvbci_payload_afs(i32 noundef %0, i32 noundef %1, ptr noundef %2, i32 noundef %3, ptr noundef %4, ptr noundef %5, ptr noundef %6) #0 {
  %8 = alloca i32, align 4
  %9 = alloca i32, align 4
  %10 = alloca ptr, align 8
  %11 = alloca i32, align 4
  %12 = alloca ptr, align 8
  %13 = alloca ptr, align 8
  %14 = alloca ptr, align 8
  %15 = alloca ptr, align 8
  store i32 %0, ptr %8, align 4
  store i32 %1, ptr %9, align 4
  store ptr %2, ptr %10, align 8
  store i32 %3, ptr %11, align 4
  store ptr %4, ptr %12, align 8
  store ptr %5, ptr %13, align 8
  store ptr %6, ptr %14, align 8
  call void @llvm.lifetime.start.p0(i64 8, ptr %15) #11
  %16 = load i32, ptr %8, align 4
  switch i32 %16, label %50 [
    i32 10458112, label %17
    i32 10458113, label %34
    i32 10458114, label %40
    i32 10458115, label %45
  ]

17:                                               ; preds = %7
  %18 = load ptr, ptr %14, align 8
  %19 = load i32, ptr @hf_dvbci_afs_dom_id, align 4
  %20 = load ptr, ptr %10, align 8
  %21 = load i32, ptr %11, align 4
  %22 = load ptr, ptr %13, align 8
  %23 = getelementptr inbounds nuw %struct._packet_info, ptr %22, i32 0, i32 51
  %24 = load ptr, ptr %23, align 8
  %25 = call ptr @proto_tree_add_item_ret_string(ptr noundef %18, i32 noundef %19, ptr noundef %20, i32 noundef %21, i32 noundef 1, i32 noundef 2, ptr noundef %24, ptr noundef %15)
  %26 = load ptr, ptr %15, align 8
  %27 = icmp ne ptr %26, null
  br i1 %27, label %28, label %33

28:                                               ; preds = %17
  %29 = load ptr, ptr %13, align 8
  %30 = getelementptr inbounds nuw %struct._packet_info, ptr %29, i32 0, i32 1
  %31 = load ptr, ptr %30, align 8
  %32 = load ptr, ptr %15, align 8
  call void (ptr, i32, ptr, ptr, ...) @col_append_sep_fstr(ptr noundef %31, i32 noundef 25, ptr noundef @.str.990, ptr noundef @.str.1069, ptr noundef %32)
  br label %33

33:                                               ; preds = %28, %17
  br label %51

34:                                               ; preds = %7
  %35 = load ptr, ptr %14, align 8
  %36 = load i32, ptr @hf_dvbci_afs_ack_code, align 4
  %37 = load ptr, ptr %10, align 8
  %38 = load i32, ptr %11, align 4
  %39 = call ptr @proto_tree_add_item(ptr noundef %35, i32 noundef %36, ptr noundef %37, i32 noundef %38, i32 noundef 1, i32 noundef 0)
  br label %51

40:                                               ; preds = %7
  %41 = load ptr, ptr %10, align 8
  %42 = load i32, ptr %11, align 4
  %43 = load ptr, ptr %13, align 8
  %44 = load ptr, ptr %14, align 8
  call void @dissect_dvbci_ami_file_req(ptr noundef %41, i32 noundef %42, ptr noundef %43, ptr noundef %44)
  br label %51

45:                                               ; preds = %7
  %46 = load ptr, ptr %10, align 8
  %47 = load i32, ptr %11, align 4
  %48 = load ptr, ptr %13, align 8
  %49 = load ptr, ptr %14, align 8
  call void @dissect_dvbci_ami_file_ack(ptr noundef %46, i32 noundef %47, ptr noundef %48, ptr noundef %49)
  br label %51

50:                                               ; preds = %7
  br label %51

51:                                               ; preds = %50, %45, %40, %34, %33
  call void @llvm.lifetime.end.p0(i64 8, ptr %15) #11
  ret void
}