; Function Attrs: null_pointer_is_valid sspstrong uwtable
define internal void @dissect_dvbci_payload_afs(i32 noundef %0, i32 %1, ptr noundef %2, i32 noundef %3, ptr readnone captures(none) %4, ptr noundef %5, ptr noundef %6) #1 {
  %8 = alloca ptr, align 8
  call void @llvm.lifetime.start.p0(i64 8, ptr nonnull %8) #16
  switch i32 %0, label %23 [
    i32 10458112, label %9
    i32 10458113, label %18
    i32 10458114, label %21
    i32 10458115, label %22
  ]

9:                                                ; preds = %7
  %10 = load i32, ptr @hf_dvbci_afs_dom_id, align 4
  %11 = getelementptr inbounds nuw i8, ptr %5, i64 408
  %12 = load ptr, ptr %11, align 8
  %13 = call ptr @proto_tree_add_item_ret_string(ptr noundef %6, i32 noundef %10, ptr noundef %2, i32 noundef %3, i32 noundef 1, i32 noundef 2, ptr noundef %12, ptr noundef nonnull %8)
  %14 = load ptr, ptr %8, align 8
  %.not = icmp eq ptr %14, null
  br i1 %.not, label %23, label %15

15:                                               ; preds = %9
  %16 = getelementptr inbounds nuw i8, ptr %5, i64 8
  %17 = load ptr, ptr %16, align 8
  call void (ptr, i32, ptr, ptr, ...) @col_append_sep_fstr(ptr noundef %17, i32 noundef 25, ptr noundef nonnull @.str.990, ptr noundef nonnull @.str.1069, ptr noundef nonnull %14)
  br label %23

18:                                               ; preds = %7
  %19 = load i32, ptr @hf_dvbci_afs_ack_code, align 4
  %20 = tail call ptr @proto_tree_add_item(ptr noundef %6, i32 noundef %19, ptr noundef %2, i32 noundef %3, i32 noundef 1, i32 noundef 0)
  br label %23

21:                                               ; preds = %7
  tail call fastcc void @dissect_dvbci_ami_file_req(ptr noundef %2, i32 noundef %3, ptr noundef %5, ptr noundef %6)
  br label %23

22:                                               ; preds = %7
  tail call fastcc void @dissect_dvbci_ami_file_ack(ptr noundef %2, i32 noundef %3, ptr noundef %5, ptr noundef %6)
  br label %23

23:                                               ; preds = %7, %9, %15, %22, %21, %18
  call void @llvm.lifetime.end.p0(i64 8, ptr nonnull %8) #16
  ret void
}